; Function Attrs: mustprogress uwtable
define void @_ZN3gmx26AbstractCompositeHelpTopicC2Ev(ptr noundef nonnull writeonly align 8 captures(none) dereferenceable(16) initializes((0, 16)) %0) unnamed_addr #3 align 2 personality ptr @__gxx_personality_v0 {
  store ptr getelementptr inbounds nuw inrange(-16, 64) (i8, ptr @_ZTVN3gmx26AbstractCompositeHelpTopicE, i64 16), ptr %0, align 8, !tbaa !4
  %2 = tail call noalias noundef nonnull dereferenceable(72) ptr @_Znwm(i64 noundef 72) #26
  %3 = getelementptr inbounds nuw i8, ptr %0, i64 8
  tail call void @llvm.memset.p0.i64(ptr noundef nonnull align 8 dereferenceable(72) %2, i8 0, i64 24, i1 false)
  %4 = getelementptr inbounds nuw i8, ptr %2, i64 32
  store i32 0, ptr %4, align 8, !tbaa !33
  %5 = getelementptr inbounds nuw i8, ptr %2, i64 40
  store ptr null, ptr %5, align 8, !tbaa !22
  %6 = getelementptr inbounds nuw i8, ptr %2, i64 48
  store ptr %4, ptr %6, align 8, !tbaa !34
  %7 = getelementptr inbounds nuw i8, ptr %2, i64 56
  store ptr %4, ptr %7, align 8, !tbaa !35
  %8 = getelementptr inbounds nuw i8, ptr %2, i64 64
  store i64 0, ptr %8, align 8, !tbaa !36
  store ptr %2, ptr %3, align 8, !tbaa !16
  ret void
}